target datalayout = "e-m:e-p270:32:32-p271:32:32-p272:64:64-i64:64-i128:128-f80:128-n8:16:32:64-S128"
target triple = "x86_64-pc-linux-gnu"

%"class.std::__shared_count" = type { ptr }
%"class.std::shared_ptr.3" = type { %"class.std::__shared_ptr.4" }
%"class.std::__shared_ptr.4" = type { ptr, %"class.std::__shared_count" }
%"class.std::shared_ptr.6" = type { %"class.std::__shared_ptr.7" }
%"class.std::__shared_ptr.7" = type { ptr, %"class.std::__shared_count" }
%"class.dap::Reader" = type { %"class.dap::Closable" }
%"class.dap::Closable" = type { ptr }
%"class.std::__cxx11::basic_string" = type { %"struct.std::__cxx11::basic_string<char>::_Alloc_hider", i64, %union.anon }
%"struct.std::__cxx11::basic_string<char>::_Alloc_hider" = type { ptr }
%union.anon = type { i64, [8 x i8] }
%"class.(anonymous namespace)::ReaderSpy" = type { %"class.dap::Reader", %"class.std::shared_ptr.3", %"class.std::shared_ptr.6", %"class.std::__cxx11::basic_string" }

; Function Attrs: mustprogress nounwind uwtable
define linkonce_odr dso_local noundef ptr @_ZNKSt12__shared_ptrIN3dap6ReaderELN9__gnu_cxx12_Lock_policyE2EE3getEv(ptr noundef nonnull align 8 dereferenceable(16) %0) #1 comdat align 2 {
  %2 = alloca ptr, align 8
  store ptr %0, ptr %2, align 8
  %3 = load ptr, ptr %2, align 8
  %4 = getelementptr inbounds %"class.std::__shared_ptr.4", ptr %3, i32 0, i32 0
  %5 = load ptr, ptr %4, align 8
  ret ptr %5
}

; Function Attrs: mustprogress nounwind uwtable
define linkonce_odr dso_local noundef ptr @_ZNKSt19__shared_ptr_accessIN3dap6ReaderELN9__gnu_cxx12_Lock_policyE2ELb0ELb0EE6_M_getEv(ptr noundef nonnull align 1 dereferenceable(1) %0) #1 comdat align 2 {
  %2 = alloca ptr, align 8
  store ptr %0, ptr %2, align 8
  %3 = load ptr, ptr %2, align 8
  %4 = call noundef ptr @_ZNKSt12__shared_ptrIN3dap6ReaderELN9__gnu_cxx12_Lock_policyE2EE3getEv(ptr noundef nonnull align 8 dereferenceable(16) %3) #15
  ret ptr %4
}

; Function Attrs: mustprogress nounwind uwtable
define linkonce_odr dso_local noundef ptr @_ZNKSt19__shared_ptr_accessIN3dap6ReaderELN9__gnu_cxx12_Lock_policyE2ELb0ELb0EEptEv(ptr noundef nonnull align 1 dereferenceable(1) %0) #1 comdat align 2 {
  %2 = alloca ptr, align 8
  store ptr %0, ptr %2, align 8
  %3 = load ptr, ptr %2, align 8
  %4 = call noundef ptr @_ZNKSt19__shared_ptr_accessIN3dap6ReaderELN9__gnu_cxx12_Lock_policyE2ELb0ELb0EE6_M_getEv(ptr noundef nonnull align 1 dereferenceable(1) %3) #15
  ret ptr %4
}

; Function Attrs: mustprogress uwtable
define internal noundef zeroext i1 @_ZN12_GLOBAL__N_19ReaderSpy6isOpenEv(ptr noundef nonnull align 8 dereferenceable(72) %0) unnamed_addr #0 align 2 {
  %2 = alloca ptr, align 8
  store ptr %0, ptr %2, align 8
  %3 = load ptr, ptr %2, align 8
  %4 = getelementptr inbounds %"class.(anonymous namespace)::ReaderSpy", ptr %3, i32 0, i32 1
  %5 = call noundef ptr @_ZNKSt19__shared_ptr_accessIN3dap6ReaderELN9__gnu_cxx12_Lock_policyE2ELb0ELb0EEptEv(ptr noundef nonnull align 1 dereferenceable(1) %4) #15
  %6 = load ptr, ptr %5, align 8
  %7 = getelementptr i8, ptr %6, i64 -48
  %8 = load i64, ptr %7, align 8
  %9 = getelementptr inbounds i8, ptr %5, i64 %8
  %10 = load ptr, ptr %9, align 8
  %11 = getelementptr inbounds ptr, ptr %10, i64 2
  %12 = load ptr, ptr %11, align 8
  %13 = call noundef zeroext i1 %12(ptr noundef nonnull align 8 dereferenceable(8) %9)
  ret i1 %13
}