; Function Attrs: mustprogress uwtable
define internal noundef zeroext i1 @_ZN12_GLOBAL__N_19ReaderSpy6isOpenEv(ptr nocapture noundef nonnull readonly align 8 dereferenceable(72) %0) unnamed_addr #0 align 2 {
  %2 = getelementptr inbounds i8, ptr %0, i64 8
  %3 = load ptr, ptr %2, align 8
  %4 = load ptr, ptr %3, align 8
  %5 = getelementptr i8, ptr %4, i64 -48
  %6 = load i64, ptr %5, align 8
  %7 = getelementptr inbounds i8, ptr %3, i64 %6
  %8 = load ptr, ptr %7, align 8
  %9 = getelementptr inbounds i8, ptr %8, i64 16
  %10 = load ptr, ptr %9, align 8
  %11 = tail call noundef zeroext i1 %10(ptr noundef nonnull align 8 dereferenceable(8) %7)
  ret i1 %11
}